target datalayout = "e-m:e-p270:32:32-p271:32:32-p272:64:64-i64:64-i128:128-f80:128-n8:16:32:64-S128"
target triple = "x86_64-pc-linux-gnu"

%"class.std::__cxx11::basic_string" = type { %"struct.std::__cxx11::basic_string<char>::_Alloc_hider", i64, %union.anon }
%"struct.std::__cxx11::basic_string<char>::_Alloc_hider" = type { ptr }
%union.anon = type { i64, [8 x i8] }
%"class.std::vector.15" = type { %"struct.std::_Vector_base.16" }
%"struct.std::_Vector_base.16" = type { %"struct.std::_Vector_base<double, std::allocator<double>>::_Vector_impl" }
%"struct.std::_Vector_base<double, std::allocator<double>>::_Vector_impl" = type { %"struct.std::_Vector_base<double, std::allocator<double>>::_Vector_impl_data" }
%"struct.std::_Vector_base<double, std::allocator<double>>::_Vector_impl_data" = type { ptr, ptr, ptr }
%struct.t_pull_coord = type { i32, %"class.std::__cxx11::basic_string", i32, %"class.std::__cxx11::basic_string", double, i32, %"struct.std::array", %"class.gmx::BasicVector.21", %"class.gmx::BasicVector.22", %"class.gmx::BasicVector.22", i8, float, float, float, float, i32 }
%"struct.std::array" = type { [6 x i32] }
%"class.gmx::BasicVector.21" = type { [3 x i32] }
%"class.gmx::BasicVector.22" = type { [3 x float] }
%struct.pull_coord_work_t = type { %struct.t_pull_coord, %"class.std::unique_ptr.23", double, %struct.PullCoordSpatialData, double, i8, %"class.gmx::PullCoordExpressionParser", %"class.std::vector.15" }
%"class.std::unique_ptr.23" = type { %"struct.std::__uniq_ptr_data.24" }
%"struct.std::__uniq_ptr_data.24" = type { %"class.std::__uniq_ptr_impl.25" }
%"class.std::__uniq_ptr_impl.25" = type { %"class.std::tuple.26" }
%"class.std::tuple.26" = type { %"struct.std::_Tuple_impl.27" }
%"struct.std::_Tuple_impl.27" = type { %"struct.std::_Head_base.30" }
%"struct.std::_Head_base.30" = type { ptr }
%struct.PullCoordSpatialData = type { [3 x double], [3 x double], [3 x double], [3 x double], double, [3 x double], double, [3 x double], [3 x double], double }
%"class.gmx::PullCoordExpressionParser" = type { %"class.std::__cxx11::basic_string", %"class.std::vector.15", %"class.std::unique_ptr.31" }
%"class.std::unique_ptr.31" = type { %"struct.std::__uniq_ptr_data.32" }
%"struct.std::__uniq_ptr_data.32" = type { %"class.std::__uniq_ptr_impl.33" }
%"class.std::__uniq_ptr_impl.33" = type { %"class.std::tuple.34" }
%"class.std::tuple.34" = type { %"struct.std::_Tuple_impl.35" }
%"struct.std::_Tuple_impl.35" = type { %"struct.std::_Head_base.38" }
%"struct.std::_Head_base.38" = type { ptr }
%struct.t_pbc = type { i32, i32, i32, i32, [3 x [3 x float]], [3 x float], [3 x float], [3 x float], float, i32, [12 x [3 x i32]], [12 x [3 x float]] }

; Function Attrs: mustprogress nounwind uwtable
define linkonce_odr noundef i32 @_ZNK3gmx11BasicVectorIiEixEi(ptr noundef nonnull align 4 dereferenceable(12) %0, i32 noundef %1) #5 comdat align 2 {
  %3 = alloca ptr, align 8
  %4 = alloca i32, align 4
  store ptr %0, ptr %3, align 8, !tbaa !212
  store i32 %1, ptr %4, align 4, !tbaa !38
  %5 = load ptr, ptr %3, align 8
  %6 = getelementptr inbounds nuw %"class.gmx::BasicVector.21", ptr %5, i32 0, i32 0
  %7 = load i32, ptr %4, align 4, !tbaa !38
  %8 = sext i32 %7 to i64
  %9 = getelementptr inbounds [3 x i32], ptr %6, i64 0, i64 %8
  %10 = load i32, ptr %9, align 4, !tbaa !38
  ret i32 %10
}

; Function Attrs: inlinehint mustprogress nounwind uwtable
define linkonce_odr noundef nonnull align 4 dereferenceable(4) ptr @_ZSt3minIfERKT_S2_S2_(ptr noundef nonnull align 4 dereferenceable(4) %0, ptr noundef nonnull align 4 dereferenceable(4) %1) #10 comdat {
  %3 = alloca ptr, align 8
  %4 = alloca ptr, align 8
  %5 = alloca ptr, align 8
  store ptr %0, ptr %4, align 8, !tbaa !134
  store ptr %1, ptr %5, align 8, !tbaa !134
  %6 = load ptr, ptr %5, align 8, !tbaa !134
  %7 = load float, ptr %6, align 4, !tbaa !203
  %8 = load ptr, ptr %4, align 8, !tbaa !134
  %9 = load float, ptr %8, align 4, !tbaa !203
  %10 = fcmp olt float %7, %9
  br i1 %10, label %11, label %13

11:                                               ; preds = %2
  %12 = load ptr, ptr %5, align 8, !tbaa !134
  store ptr %12, ptr %3, align 8
  br label %15

13:                                               ; preds = %2
  %14 = load ptr, ptr %4, align 8, !tbaa !134
  store ptr %14, ptr %3, align 8
  br label %15

15:                                               ; preds = %13, %11
  %16 = load ptr, ptr %3, align 8
  ret ptr %16
}

; Function Attrs: mustprogress nounwind uwtable
define linkonce_odr noundef float @_ZN3gmx6squareIfEET_S1_(float noundef %0) #5 comdat {
  %2 = alloca float, align 4
  store float %0, ptr %2, align 4, !tbaa !203
  %3 = load float, ptr %2, align 4, !tbaa !203
  %4 = load float, ptr %2, align 4, !tbaa !203
  %5 = fmul float %3, %4
  ret float %5
}

; Function Attrs: mustprogress nounwind uwtable
define internal noundef zeroext i1 @_ZL30pull_coordinate_is_directionalRK12t_pull_coord(ptr noundef nonnull align 8 dereferenceable(176) %0) #5 {
  %2 = alloca ptr, align 8
  store ptr %0, ptr %2, align 8, !tbaa !187
  %3 = load ptr, ptr %2, align 8, !tbaa !187
  %4 = getelementptr inbounds nuw %struct.t_pull_coord, ptr %3, i32 0, i32 2
  %5 = load i32, ptr %4, align 8, !tbaa !189
  %6 = icmp eq i32 %5, 1
  br i1 %6, label %22, label %7

7:                                                ; preds = %1
  %8 = load ptr, ptr %2, align 8, !tbaa !187
  %9 = getelementptr inbounds nuw %struct.t_pull_coord, ptr %8, i32 0, i32 2
  %10 = load i32, ptr %9, align 8, !tbaa !189
  %11 = icmp eq i32 %10, 3
  br i1 %11, label %22, label %12

12:                                               ; preds = %7
  %13 = load ptr, ptr %2, align 8, !tbaa !187
  %14 = getelementptr inbounds nuw %struct.t_pull_coord, ptr %13, i32 0, i32 2
  %15 = load i32, ptr %14, align 8, !tbaa !189
  %16 = icmp eq i32 %15, 4
  br i1 %16, label %22, label %17

17:                                               ; preds = %12
  %18 = load ptr, ptr %2, align 8, !tbaa !187
  %19 = getelementptr inbounds nuw %struct.t_pull_coord, ptr %18, i32 0, i32 2
  %20 = load i32, ptr %19, align 8, !tbaa !189
  %21 = icmp eq i32 %20, 2
  br label %22

22:                                               ; preds = %17, %12, %7, %1
  %23 = phi i1 [ true, %12 ], [ true, %7 ], [ true, %1 ], [ %21, %17 ]
  ret i1 %23
}

; Function Attrs: mustprogress uwtable
define noundef float @_Z18max_pull_distance2RK17pull_coord_work_tRK5t_pbc(ptr noundef nonnull align 8 dereferenceable(488) %0, ptr noundef nonnull align 4 dereferenceable(384) %1) #6 {
  %3 = alloca ptr, align 8
  %4 = alloca ptr, align 8
  %5 = alloca float, align 4
  %6 = alloca i32, align 4
  %7 = alloca i32, align 4
  %8 = alloca float, align 4
  %9 = alloca i32, align 4
  %10 = alloca i32, align 4
  %11 = alloca float, align 4
  %12 = alloca i32, align 4
  store ptr %0, ptr %3, align 8, !tbaa !199
  store ptr %1, ptr %4, align 8, !tbaa !201
  call void @llvm.lifetime.start.p0(i64 4, ptr %5) #3
  store float 0x47EFFFFFE0000000, ptr %5, align 4, !tbaa !203
  %13 = load ptr, ptr %3, align 8, !tbaa !199
  %14 = getelementptr inbounds nuw %struct.pull_coord_work_t, ptr %13, i32 0, i32 0
  %15 = call noundef zeroext i1 @_ZL30pull_coordinate_is_directionalRK12t_pull_coord(ptr noundef nonnull align 8 dereferenceable(176) %14)
  br i1 %15, label %16, label %77

16:                                               ; preds = %2
  call void @llvm.lifetime.start.p0(i64 4, ptr %6) #3
  store i32 0, ptr %6, align 4, !tbaa !38
  br label %17

17:                                               ; preds = %73, %16
  %18 = load i32, ptr %6, align 4, !tbaa !38
  %19 = icmp slt i32 %18, 3
  br i1 %19, label %21, label %20

20:                                               ; preds = %17
  store i32 2, ptr %7, align 4
  call void @llvm.lifetime.end.p0(i64 4, ptr %6) #3
  br label %76

21:                                               ; preds = %17
  %22 = load i32, ptr %6, align 4, !tbaa !38
  %23 = load ptr, ptr %4, align 8, !tbaa !201
  %24 = getelementptr inbounds nuw %struct.t_pbc, ptr %23, i32 0, i32 1
  %25 = load i32, ptr %24, align 4, !tbaa !204
  %26 = icmp slt i32 %22, %25
  br i1 %26, label %27, label %72

27:                                               ; preds = %21
  %28 = load ptr, ptr %3, align 8, !tbaa !199
  %29 = getelementptr inbounds nuw %struct.pull_coord_work_t, ptr %28, i32 0, i32 3
  %30 = getelementptr inbounds nuw %struct.PullCoordSpatialData, ptr %29, i32 0, i32 3
  %31 = load i32, ptr %6, align 4, !tbaa !38
  %32 = sext i32 %31 to i64
  %33 = getelementptr inbounds [3 x double], ptr %30, i64 0, i64 %32
  %34 = load double, ptr %33, align 8, !tbaa !93
  %35 = fcmp une double %34, 0.000000e+00
  br i1 %35, label %36, label %72

36:                                               ; preds = %27
  call void @llvm.lifetime.start.p0(i64 4, ptr %8) #3
  %37 = load ptr, ptr %4, align 8, !tbaa !201
  %38 = getelementptr inbounds nuw %struct.t_pbc, ptr %37, i32 0, i32 4
  %39 = load i32, ptr %6, align 4, !tbaa !38
  %40 = sext i32 %39 to i64
  %41 = getelementptr inbounds [3 x [3 x float]], ptr %38, i64 0, i64 %40
  %42 = load i32, ptr %6, align 4, !tbaa !38
  %43 = sext i32 %42 to i64
  %44 = getelementptr inbounds [3 x float], ptr %41, i64 0, i64 %43
  %45 = load float, ptr %44, align 4, !tbaa !203
  %46 = call noundef float @_ZN3gmx6squareIfEET_S1_(float noundef %45)
  store float %46, ptr %8, align 4, !tbaa !203
  call void @llvm.lifetime.start.p0(i64 4, ptr %9) #3
  %47 = load i32, ptr %6, align 4, !tbaa !38
  %48 = add nsw i32 %47, 1
  store i32 %48, ptr %9, align 4, !tbaa !38
  br label %49

49:                                               ; preds = %66, %36
  %50 = load i32, ptr %9, align 4, !tbaa !38
  %51 = icmp slt i32 %50, 3
  br i1 %51, label %53, label %52

52:                                               ; preds = %49
  store i32 5, ptr %7, align 4
  call void @llvm.lifetime.end.p0(i64 4, ptr %9) #3
  br label %69

53:                                               ; preds = %49
  %54 = load ptr, ptr %4, align 8, !tbaa !201
  %55 = getelementptr inbounds nuw %struct.t_pbc, ptr %54, i32 0, i32 4
  %56 = load i32, ptr %9, align 4, !tbaa !38
  %57 = sext i32 %56 to i64
  %58 = getelementptr inbounds [3 x [3 x float]], ptr %55, i64 0, i64 %57
  %59 = load i32, ptr %6, align 4, !tbaa !38
  %60 = sext i32 %59 to i64
  %61 = getelementptr inbounds [3 x float], ptr %58, i64 0, i64 %60
  %62 = load float, ptr %61, align 4, !tbaa !203
  %63 = call noundef float @_ZN3gmx6squareIfEET_S1_(float noundef %62)
  %64 = load float, ptr %8, align 4, !tbaa !203
  %65 = fsub float %64, %63
  store float %65, ptr %8, align 4, !tbaa !203
  br label %66

66:                                               ; preds = %53
  %67 = load i32, ptr %9, align 4, !tbaa !38
  %68 = add nsw i32 %67, 1
  store i32 %68, ptr %9, align 4, !tbaa !38
  br label %49, !llvm.loop !207

69:                                               ; preds = %52
  %70 = call noundef nonnull align 4 dereferenceable(4) ptr @_ZSt3minIfERKT_S2_S2_(ptr noundef nonnull align 4 dereferenceable(4) %5, ptr noundef nonnull align 4 dereferenceable(4) %8)
  %71 = load float, ptr %70, align 4, !tbaa !203
  store float %71, ptr %5, align 4, !tbaa !203
  call void @llvm.lifetime.end.p0(i64 4, ptr %8) #3
  br label %72

72:                                               ; preds = %69, %27, %21
  br label %73

73:                                               ; preds = %72
  %74 = load i32, ptr %6, align 4, !tbaa !38
  %75 = add nsw i32 %74, 1
  store i32 %75, ptr %6, align 4, !tbaa !38
  br label %17, !llvm.loop !209

76:                                               ; preds = %20
  br label %143

77:                                               ; preds = %2
  call void @llvm.lifetime.start.p0(i64 4, ptr %10) #3
  store i32 0, ptr %10, align 4, !tbaa !38
  br label %78

78:                                               ; preds = %139, %77
  %79 = load i32, ptr %10, align 4, !tbaa !38
  %80 = icmp slt i32 %79, 3
  br i1 %80, label %82, label %81

81:                                               ; preds = %78
  store i32 8, ptr %7, align 4
  call void @llvm.lifetime.end.p0(i64 4, ptr %10) #3
  br label %142

82:                                               ; preds = %78
  %83 = load i32, ptr %10, align 4, !tbaa !38
  %84 = load ptr, ptr %4, align 8, !tbaa !201
  %85 = getelementptr inbounds nuw %struct.t_pbc, ptr %84, i32 0, i32 1
  %86 = load i32, ptr %85, align 4, !tbaa !204
  %87 = icmp slt i32 %83, %86
  br i1 %87, label %88, label %138

88:                                               ; preds = %82
  %89 = load ptr, ptr %3, align 8, !tbaa !199
  %90 = getelementptr inbounds nuw %struct.pull_coord_work_t, ptr %89, i32 0, i32 0
  %91 = getelementptr inbounds nuw %struct.t_pull_coord, ptr %90, i32 0, i32 7
  %92 = load i32, ptr %10, align 4, !tbaa !38
  %93 = call noundef i32 @_ZNK3gmx11BasicVectorIiEixEi(ptr noundef nonnull align 4 dereferenceable(12) %91, i32 noundef %92)
  %94 = icmp ne i32 %93, 0
  br i1 %94, label %95, label %138

95:                                               ; preds = %88
  call void @llvm.lifetime.start.p0(i64 4, ptr %11) #3
  %96 = load ptr, ptr %4, align 8, !tbaa !201
  %97 = getelementptr inbounds nuw %struct.t_pbc, ptr %96, i32 0, i32 4
  %98 = load i32, ptr %10, align 4, !tbaa !38
  %99 = sext i32 %98 to i64
  %100 = getelementptr inbounds [3 x [3 x float]], ptr %97, i64 0, i64 %99
  %101 = load i32, ptr %10, align 4, !tbaa !38
  %102 = sext i32 %101 to i64
  %103 = getelementptr inbounds [3 x float], ptr %100, i64 0, i64 %102
  %104 = load float, ptr %103, align 4, !tbaa !203
  %105 = call noundef float @_ZN3gmx6squareIfEET_S1_(float noundef %104)
  store float %105, ptr %11, align 4, !tbaa !203
  call void @llvm.lifetime.start.p0(i64 4, ptr %12) #3
  store i32 0, ptr %12, align 4, !tbaa !38
  br label %106

106:                                              ; preds = %132, %95
  %107 = load i32, ptr %12, align 4, !tbaa !38
  %108 = load i32, ptr %10, align 4, !tbaa !38
  %109 = icmp slt i32 %107, %108
  br i1 %109, label %111, label %110

110:                                              ; preds = %106
  store i32 11, ptr %7, align 4
  call void @llvm.lifetime.end.p0(i64 4, ptr %12) #3
  br label %135

111:                                              ; preds = %106
  %112 = load ptr, ptr %3, align 8, !tbaa !199
  %113 = getelementptr inbounds nuw %struct.pull_coord_work_t, ptr %112, i32 0, i32 0
  %114 = getelementptr inbounds nuw %struct.t_pull_coord, ptr %113, i32 0, i32 7
  %115 = load i32, ptr %12, align 4, !tbaa !38
  %116 = call noundef i32 @_ZNK3gmx11BasicVectorIiEixEi(ptr noundef nonnull align 4 dereferenceable(12) %114, i32 noundef %115)
  %117 = icmp ne i32 %116, 0
  br i1 %117, label %118, label %131

118:                                              ; preds = %111
  %119 = load ptr, ptr %4, align 8, !tbaa !201
  %120 = getelementptr inbounds nuw %struct.t_pbc, ptr %119, i32 0, i32 4
  %121 = load i32, ptr %10, align 4, !tbaa !38
  %122 = sext i32 %121 to i64
  %123 = getelementptr inbounds [3 x [3 x float]], ptr %120, i64 0, i64 %122
  %124 = load i32, ptr %12, align 4, !tbaa !38
  %125 = sext i32 %124 to i64
  %126 = getelementptr inbounds [3 x float], ptr %123, i64 0, i64 %125
  %127 = load float, ptr %126, align 4, !tbaa !203
  %128 = call noundef float @_ZN3gmx6squareIfEET_S1_(float noundef %127)
  %129 = load float, ptr %11, align 4, !tbaa !203
  %130 = fadd float %129, %128
  store float %130, ptr %11, align 4, !tbaa !203
  br label %131

131:                                              ; preds = %118, %111
  br label %132

132:                                              ; preds = %131
  %133 = load i32, ptr %12, align 4, !tbaa !38
  %134 = add nsw i32 %133, 1
  store i32 %134, ptr %12, align 4, !tbaa !38
  br label %106, !llvm.loop !210

135:                                              ; preds = %110
  %136 = call noundef nonnull align 4 dereferenceable(4) ptr @_ZSt3minIfERKT_S2_S2_(ptr noundef nonnull align 4 dereferenceable(4) %5, ptr noundef nonnull align 4 dereferenceable(4) %11)
  %137 = load float, ptr %136, align 4, !tbaa !203
  store float %137, ptr %5, align 4, !tbaa !203
  call void @llvm.lifetime.end.p0(i64 4, ptr %11) #3
  br label %138

138:                                              ; preds = %135, %88, %82
  br label %139

139:                                              ; preds = %138
  %140 = load i32, ptr %10, align 4, !tbaa !38
  %141 = add nsw i32 %140, 1
  store i32 %141, ptr %10, align 4, !tbaa !38
  br label %78, !llvm.loop !211

142:                                              ; preds = %81
  br label %143

143:                                              ; preds = %142, %76
  %144 = load float, ptr %5, align 4, !tbaa !203
  %145 = fpext float %144 to double
  %146 = fmul double 2.500000e-01, %145
  %147 = fptrunc double %146 to float
  store i32 1, ptr %7, align 4
  call void @llvm.lifetime.end.p0(i64 4, ptr %5) #3
  ret float %147
}