; Function Attrs: mustprogress nofree norecurse nosync nounwind willreturn memory(argmem: read) uwtable
define noundef float @_Z18max_pull_distance2RK17pull_coord_work_tRK5t_pbc(ptr noundef nonnull readonly align 8 captures(none) dereferenceable(488) %0, ptr noundef nonnull readonly align 4 captures(none) dereferenceable(384) %1) local_unnamed_addr #15 {
  %3 = getelementptr inbounds nuw i8, ptr %0, i64 40
  %.val = load i32, ptr %3, align 8, !tbaa !64
  %4 = add i32 %.val, -1
  %switch.selectcmp.i = icmp ult i32 %4, 4
  %5 = getelementptr inbounds nuw i8, ptr %1, i64 4
  %6 = load i32, ptr %5, align 4, !tbaa !75
  %7 = getelementptr inbounds nuw i8, ptr %1, i64 16
  %8 = sext i32 %6 to i64
  br i1 %switch.selectcmp.i, label %.preheader, label %.preheader48

.preheader48:                                     ; preds = %2
  %9 = getelementptr inbounds nuw i8, ptr %0, i64 116
  br label %29

.preheader:                                       ; preds = %2
  %10 = getelementptr inbounds nuw i8, ptr %0, i64 264
  br label %11

11:                                               ; preds = %.preheader, %28
  %indvars.iv71 = phi i64 [ 0, %.preheader ], [ %indvars.iv.next72, %28 ]
  %.04661 = phi float [ 0x47EFFFFFE0000000, %.preheader ], [ %.147, %28 ]
  %12 = icmp slt i64 %indvars.iv71, %8
  br i1 %12, label %13, label %28

13:                                               ; preds = %11
  %14 = getelementptr inbounds nuw [3 x double], ptr %10, i64 0, i64 %indvars.iv71
  %15 = load double, ptr %14, align 8, !tbaa !78
  %16 = fcmp une double %15, 0.000000e+00
  br i1 %16, label %17, label %28

17:                                               ; preds = %13
  %18 = getelementptr inbounds nuw [3 x [3 x float]], ptr %7, i64 0, i64 %indvars.iv71, i64 %indvars.iv71
  %19 = load float, ptr %18, align 4, !tbaa !79
  %20 = fmul float %19, %19
  %21 = icmp samesign ult i64 %indvars.iv71, 2
  br i1 %21, label %.lr.ph58, label %._crit_edge59

._crit_edge59:                                    ; preds = %.lr.ph58, %17
  %storemerge.lcssa = phi float [ %20, %17 ], [ %26, %.lr.ph58 ]
  %22 = fcmp olt float %storemerge.lcssa, %.04661
  %.sroa.speculated40 = select i1 %22, float %storemerge.lcssa, float %.04661
  br label %28

.lr.ph58:                                         ; preds = %17, %.lr.ph58
  %indvars.iv73 = phi i64 [ 1, %.lr.ph58 ], [ %indvars.iv71, %17 ]
  %storemerge55 = phi float [ %26, %.lr.ph58 ], [ %20, %17 ]
  %indvars.iv.next74 = add nuw nsw i64 %indvars.iv73, 1
  %23 = getelementptr inbounds nuw [3 x [3 x float]], ptr %7, i64 0, i64 %indvars.iv.next74, i64 %indvars.iv71
  %24 = load float, ptr %23, align 4, !tbaa !79
  %25 = fmul float %24, %24
  %26 = fsub float %storemerge55, %25
  %27 = icmp eq i64 %indvars.iv73, 0
  br i1 %27, label %.lr.ph58, label %._crit_edge59, !llvm.loop !80

28:                                               ; preds = %11, %13, %._crit_edge59
  %.147 = phi float [ %.sroa.speculated40, %._crit_edge59 ], [ %.04661, %13 ], [ %.04661, %11 ]
  %indvars.iv.next72 = add nuw nsw i64 %indvars.iv71, 1
  %exitcond77.not = icmp eq i64 %indvars.iv.next72, 3
  br i1 %exitcond77.not, label %.loopexit, label %11, !llvm.loop !82

29:                                               ; preds = %.preheader48, %47
  %indvars.iv67 = phi i64 [ 0, %.preheader48 ], [ %indvars.iv.next68, %47 ]
  %.352 = phi float [ 0x47EFFFFFE0000000, %.preheader48 ], [ %.4, %47 ]
  %30 = icmp slt i64 %indvars.iv67, %8
  br i1 %30, label %31, label %47

31:                                               ; preds = %29
  %32 = getelementptr inbounds nuw [3 x i32], ptr %9, i64 0, i64 %indvars.iv67
  %33 = load i32, ptr %32, align 4, !tbaa !83
  %.not = icmp eq i32 %33, 0
  br i1 %.not, label %47, label %34

34:                                               ; preds = %31
  %35 = getelementptr inbounds nuw [3 x [3 x float]], ptr %7, i64 0, i64 %indvars.iv67, i64 %indvars.iv67
  %36 = load float, ptr %35, align 4, !tbaa !79
  %37 = fmul float %36, %36
  %.not64 = icmp eq i64 %indvars.iv67, 0
  br i1 %.not64, label %._crit_edge, label %.lr.ph

._crit_edge:                                      ; preds = %46, %34
  %.045.lcssa = phi float [ %37, %34 ], [ %.1, %46 ]
  %38 = fcmp olt float %.045.lcssa, %.352
  %.sroa.speculated = select i1 %38, float %.045.lcssa, float %.352
  br label %47

.lr.ph:                                           ; preds = %34, %46
  %indvars.iv = phi i64 [ %indvars.iv.next, %46 ], [ 0, %34 ]
  %.04550 = phi float [ %.1, %46 ], [ %37, %34 ]
  %39 = getelementptr inbounds nuw [3 x i32], ptr %9, i64 0, i64 %indvars.iv
  %40 = load i32, ptr %39, align 4, !tbaa !83
  %.not35 = icmp eq i32 %40, 0
  br i1 %.not35, label %46, label %41

41:                                               ; preds = %.lr.ph
  %42 = getelementptr inbounds nuw [3 x [3 x float]], ptr %7, i64 0, i64 %indvars.iv67, i64 %indvars.iv
  %43 = load float, ptr %42, align 4, !tbaa !79
  %44 = fmul float %43, %43
  %45 = fadd float %.04550, %44
  br label %46

46:                                               ; preds = %.lr.ph, %41
  %.1 = phi float [ %.04550, %.lr.ph ], [ %45, %41 ]
  %indvars.iv.next = add nuw nsw i64 %indvars.iv, 1
  %exitcond.not = icmp eq i64 %indvars.iv.next, %indvars.iv67
  br i1 %exitcond.not, label %._crit_edge, label %.lr.ph, !llvm.loop !84

47:                                               ; preds = %29, %31, %._crit_edge
  %.4 = phi float [ %.352, %31 ], [ %.sroa.speculated, %._crit_edge ], [ %.352, %29 ]
  %indvars.iv.next68 = add nuw nsw i64 %indvars.iv67, 1
  %exitcond70.not = icmp eq i64 %indvars.iv.next68, 3
  br i1 %exitcond70.not, label %.loopexit, label %29, !llvm.loop !85

.loopexit:                                        ; preds = %47, %28
  %.2 = phi float [ %.147, %28 ], [ %.4, %47 ]
  %48 = fmul float %.2, 2.500000e-01
  ret float %48
}